; Function Attrs: mustprogress nofree norecurse nosync nounwind willreturn memory(read, inaccessiblemem: none) uwtable
define hidden noundef zeroext i1 @_ZNK4cvc58internal6theory5arith6linear10Constraint15hasIntHoleProofEv(ptr nocapture noundef nonnull readonly align 8 dereferenceable(145) %this) local_unnamed_addr #9 align 2 {
entry:
  %d_database.i.i = getelementptr inbounds i8, ptr %this, i64 72
  %0 = load ptr, ptr %d_database.i.i, align 8
  %d_watches.i.i = getelementptr inbounds i8, ptr %0, i64 272
  %1 = load ptr, ptr %d_watches.i.i, align 8
  %d_crid.i.i = getelementptr inbounds i8, ptr %this, i64 120
  %2 = load i64, ptr %d_crid.i.i, align 8
  %d_list.i.i.i = getelementptr inbounds i8, ptr %1, i64 40
  %3 = load ptr, ptr %d_list.i.i.i, align 8
  %d_proofType.i = getelementptr inbounds %"struct.cvc5::internal::theory::arith::linear::ConstraintRule", ptr %3, i64 %2, i32 1
  %4 = load i32, ptr %d_proofType.i, align 8
  %cmp = icmp eq i32 %4, 7
  ret i1 %cmp
}